target datalayout = "e-m:e-p270:32:32-p271:32:32-p272:64:64-i64:64-i128:128-f80:128-n8:16:32:64-S128"
target triple = "x86_64-pc-linux-gnu"

%struct._capture_file = type { ptr, i32, ptr, ptr, i8, i8, i8, i64, i16, i32, i32, i32, ptr, i32, i64, i32, i32, i32, i32, i8, i32, %struct.nstime_t, i32, ptr, ptr, ptr, i8, i8, i32, ptr, i8, i8, i8, i8, i8, i32, i32, i8, ptr, i32, i32, i8, %struct.packet_provider_data, i32, i32, %struct.epan_column_info, ptr, ptr, ptr, %struct.wtap_rec, %struct.Buffer, ptr, i64, i32 }
%struct.nstime_t = type { i64, i32 }
%struct.packet_provider_data = type { ptr, ptr, ptr, ptr, ptr, ptr }
%struct.epan_column_info = type { ptr, i32, ptr, ptr, ptr, %struct.col_expr_t, i8, ptr }
%struct.col_expr_t = type { ptr, ptr }
%struct.wtap_rec = type { i32, i32, i32, %struct.nstime_t, i32, %struct.nstime_t, i8, %union.anon, ptr, i8, %struct.Buffer, %struct.Buffer }
%union.anon = type { %struct.wtap_packet_header }
%struct.wtap_packet_header = type { i32, i32, i32, i32, %union.wtap_pseudo_header }
%union.wtap_pseudo_header = type { %struct.erf_mc_phdr }
%struct.erf_mc_phdr = type { %struct.erf_phdr, [16 x %struct.erf_ehdr], %union.anon.1 }
%struct.erf_phdr = type { i64, i8, i8, i16, i16, i16 }
%struct.erf_ehdr = type { i64 }
%union.anon.1 = type { i32 }
%struct.Buffer = type { ptr, i64, i64, i64 }

@dump_v4 = internal global i8 0, align 1
@dump_v6 = internal global i8 0, align 1
@.str.9 = private unnamed_addr constant [23 x i8] c"# TShark hosts output\0A\00", align 1
@.str.10 = private unnamed_addr constant [3 x i8] c"#\0A\00", align 1
@.str.11 = private unnamed_addr constant [30 x i8] c"# Host data gathered from %s\0A\00", align 1
@cfile = external global %struct._capture_file, align 8
@.str.12 = private unnamed_addr constant [27 x i8] c"the temporary capture file\00", align 1
@.str.13 = private unnamed_addr constant [2 x i8] c"\0A\00", align 1

; Function Attrs: null_pointer_is_valid sspstrong uwtable
define internal void @hosts_draw(ptr noundef %0) #0 {
  %2 = alloca ptr, align 8
  %3 = alloca ptr, align 8
  %4 = alloca ptr, align 8
  store ptr %0, ptr %2, align 8
  call void @llvm.lifetime.start.p0(i64 8, ptr %3) #5
  call void @llvm.lifetime.start.p0(i64 8, ptr %4) #5
  %5 = call i32 (i32, ptr, ...) @__printf_chk(i32 noundef 2, ptr noundef @.str.9)
  %6 = call i32 (i32, ptr, ...) @__printf_chk(i32 noundef 2, ptr noundef @.str.10)
  %7 = load i8, ptr getelementptr inbounds nuw (%struct._capture_file, ptr @cfile, i32 0, i32 4), align 8, !range !9, !noundef !10
  %8 = trunc i8 %7 to i1
  br i1 %8, label %9, label %10

9:                                                ; preds = %1
  br label %12

10:                                               ; preds = %1
  %11 = load ptr, ptr getelementptr inbounds nuw (%struct._capture_file, ptr @cfile, i32 0, i32 2), align 8
  br label %12

12:                                               ; preds = %10, %9
  %13 = phi ptr [ @.str.12, %9 ], [ %11, %10 ]
  %14 = call i32 (i32, ptr, ...) @__printf_chk(i32 noundef 2, ptr noundef @.str.11, ptr noundef %13)
  %15 = call i32 (i32, ptr, ...) @__printf_chk(i32 noundef 2, ptr noundef @.str.13)
  %16 = load i8, ptr @dump_v4, align 1, !range !9, !noundef !10
  %17 = trunc i8 %16 to i1
  br i1 %17, label %18, label %25

18:                                               ; preds = %12
  %19 = call ptr @get_ipv4_hash_table()
  store ptr %19, ptr %3, align 8
  %20 = load ptr, ptr %3, align 8
  %21 = icmp ne ptr %20, null
  br i1 %21, label %22, label %24

22:                                               ; preds = %18
  %23 = load ptr, ptr %3, align 8
  call void @wmem_map_foreach(ptr noundef %23, ptr noundef @ipv4_hash_table_print_resolved, ptr noundef null)
  br label %24

24:                                               ; preds = %22, %18
  br label %25

25:                                               ; preds = %24, %12
  %26 = load i8, ptr @dump_v6, align 1, !range !9, !noundef !10
  %27 = trunc i8 %26 to i1
  br i1 %27, label %28, label %35

28:                                               ; preds = %25
  %29 = call ptr @get_ipv6_hash_table()
  store ptr %29, ptr %4, align 8
  %30 = load ptr, ptr %4, align 8
  %31 = icmp ne ptr %30, null
  br i1 %31, label %32, label %34

32:                                               ; preds = %28
  %33 = load ptr, ptr %4, align 8
  call void @wmem_map_foreach(ptr noundef %33, ptr noundef @ipv6_hash_table_print_resolved, ptr noundef null)
  br label %34

34:                                               ; preds = %32, %28
  br label %35

35:                                               ; preds = %34, %25
  call void @llvm.lifetime.end.p0(i64 8, ptr %4) #5
  call void @llvm.lifetime.end.p0(i64 8, ptr %3) #5
  ret void
}