; Function Attrs: null_pointer_is_valid sspstrong uwtable
define internal void @hosts_draw(ptr readnone captures(none) %0) #0 {
  %2 = tail call i32 (i32, ptr, ...) @__printf_chk(i32 noundef 2, ptr noundef nonnull @.str.9)
  %3 = tail call i32 (i32, ptr, ...) @__printf_chk(i32 noundef 2, ptr noundef nonnull @.str.10)
  %4 = load i8, ptr getelementptr inbounds nuw (i8, ptr @cfile, i64 32), align 8, !range !9, !noundef !10
  %5 = trunc nuw i8 %4 to i1
  %6 = load ptr, ptr getelementptr inbounds nuw (i8, ptr @cfile, i64 16), align 8
  %7 = select i1 %5, ptr @.str.12, ptr %6
  %8 = tail call i32 (i32, ptr, ...) @__printf_chk(i32 noundef 2, ptr noundef nonnull @.str.11, ptr noundef %7)
  %9 = tail call i32 (i32, ptr, ...) @__printf_chk(i32 noundef 2, ptr noundef nonnull @.str.13)
  %.b6 = load i1, ptr @dump_v4, align 1
  br i1 %.b6, label %10, label %13

10:                                               ; preds = %1
  %11 = tail call ptr @get_ipv4_hash_table()
  %.not = icmp eq ptr %11, null
  br i1 %.not, label %13, label %12

12:                                               ; preds = %10
  tail call void @wmem_map_foreach(ptr noundef nonnull %11, ptr noundef nonnull @ipv4_hash_table_print_resolved, ptr noundef null)
  br label %13

13:                                               ; preds = %10, %12, %1
  %.b57 = load i1, ptr @dump_v6, align 1
  br i1 %.b57, label %14, label %17

14:                                               ; preds = %13
  %15 = tail call ptr @get_ipv6_hash_table()
  %.not8 = icmp eq ptr %15, null
  br i1 %.not8, label %17, label %16

16:                                               ; preds = %14
  tail call void @wmem_map_foreach(ptr noundef nonnull %15, ptr noundef nonnull @ipv6_hash_table_print_resolved, ptr noundef null)
  br label %17

17:                                               ; preds = %14, %16, %13
  ret void
}